; Function Attrs: mustprogress uwtable
define dso_local noundef ptr @_ZN16VariableSelector16find_var_by_nameENSt7__cxx1112basic_stringIcSt11char_traitsIcESaIcEEE(ptr noundef %0) local_unnamed_addr #4 align 2 {
  %2 = load ptr, ptr getelementptr inbounds (%"class.std::vector", ptr @_ZN16VariableSelector7AllVarsE, i64 0, i32 0, i32 0, i32 0, i32 1), align 8
  %3 = load ptr, ptr @_ZN16VariableSelector7AllVarsE, align 8
  %.not10 = icmp eq ptr %2, %3
  br i1 %.not10, label %._crit_edge, label %.lr.ph

4:                                                ; preds = %.lr.ph
  %5 = add nuw i64 %.057, 1
  %6 = load ptr, ptr getelementptr inbounds (%"class.std::vector", ptr @_ZN16VariableSelector7AllVarsE, i64 0, i32 0, i32 0, i32 0, i32 1), align 8
  %7 = load ptr, ptr @_ZN16VariableSelector7AllVarsE, align 8
  %8 = ptrtoint ptr %6 to i64
  %9 = ptrtoint ptr %7 to i64
  %10 = sub i64 %8, %9
  %11 = ashr exact i64 %10, 3
  %12 = icmp ult i64 %5, %11
  br i1 %12, label %.lr.ph, label %._crit_edge, !llvm.loop !46

.lr.ph:                                           ; preds = %1, %4
  %13 = phi ptr [ %7, %4 ], [ %3, %1 ]
  %.057 = phi i64 [ %5, %4 ], [ 0, %1 ]
  %14 = getelementptr inbounds ptr, ptr %13, i64 %.057
  %15 = load ptr, ptr %14, align 8
  %16 = tail call noundef ptr @_ZNK8Variable14match_var_nameERKNSt7__cxx1112basic_stringIcSt11char_traitsIcESaIcEEE(ptr noundef nonnull align 8 dereferenceable(200) %15, ptr noundef nonnull align 8 dereferenceable(32) %0)
  %.not = icmp eq ptr %16, null
  br i1 %.not, label %4, label %._crit_edge

._crit_edge:                                      ; preds = %.lr.ph, %4, %1
  %.0 = phi ptr [ null, %1 ], [ null, %4 ], [ %16, %.lr.ph ]
  ret ptr %.0
}